target datalayout = "e-m:e-p270:32:32-p271:32:32-p272:64:64-i64:64-i128:128-f80:128-n8:16:32:64-S128"
target triple = "x86_64-pc-linux-gnu"

%struct._object = type { %union.anon, ptr }
%union.anon = type { i64 }
%struct.PyDictObject = type { %struct._object, i64, i64, ptr, ptr }
%struct.anon = type { i32, i32 }

@.str.5 = private unnamed_addr constant [5 x i8] c"%s()\00", align 1
@.str.6 = private unnamed_addr constant [4 x i8] c"...\00", align 1
@.str.7 = private unnamed_addr constant [7 x i8] c"%s(%R)\00", align 1

; Function Attrs: alwaysinline nounwind uwtable
define internal i32 @_Py_IsImmortal(ptr noundef %0) #4 {
  %2 = alloca ptr, align 8
  store ptr %0, ptr %2, align 8, !tbaa !42
  %3 = load ptr, ptr %2, align 8, !tbaa !42
  %4 = getelementptr inbounds nuw %struct._object, ptr %3, i32 0, i32 0
  %5 = getelementptr inbounds nuw %struct.anon, ptr %4, i32 0, i32 0
  %6 = load i32, ptr %5, align 8, !tbaa !74
  %7 = icmp slt i32 %6, 0
  %8 = zext i1 %7 to i32
  ret i32 %8
}

; Function Attrs: alwaysinline nounwind uwtable
define internal void @Py_DECREF(ptr noundef %0) #4 {
  %2 = alloca ptr, align 8
  store ptr %0, ptr %2, align 8, !tbaa !42
  %3 = load ptr, ptr %2, align 8, !tbaa !42
  %4 = call i32 @_Py_IsImmortal(ptr noundef %3)
  %5 = icmp ne i32 %4, 0
  br i1 %5, label %6, label %7

6:                                                ; preds = %1
  br label %16

7:                                                ; preds = %1
  %8 = load ptr, ptr %2, align 8, !tbaa !42
  %9 = getelementptr inbounds nuw %struct._object, ptr %8, i32 0, i32 0
  %10 = getelementptr inbounds nuw %struct.anon, ptr %9, i32 0, i32 0
  %11 = load i32, ptr %10, align 8, !tbaa !74
  %12 = add i32 %11, -1
  store i32 %12, ptr %10, align 8, !tbaa !74
  %13 = icmp eq i32 %12, 0
  br i1 %13, label %14, label %16

14:                                               ; preds = %7
  %15 = load ptr, ptr %2, align 8, !tbaa !42
  call void @_Py_Dealloc(ptr noundef %15)
  br label %16

16:                                               ; preds = %6, %14, %7
  ret void
}

; Function Attrs: inlinehint nounwind uwtable
define internal ptr @_Py_TYPE(ptr noundef %0) #3 {
  %2 = alloca ptr, align 8
  store ptr %0, ptr %2, align 8, !tbaa !42
  %3 = load ptr, ptr %2, align 8, !tbaa !42
  %4 = getelementptr inbounds nuw %struct._object, ptr %3, i32 0, i32 1
  %5 = load ptr, ptr %4, align 8, !tbaa !68
  ret ptr %5
}

; Function Attrs: inlinehint nounwind uwtable
define internal i64 @PyDict_GET_SIZE(ptr noundef %0) #3 {
  %2 = alloca ptr, align 8
  %3 = alloca ptr, align 8
  store ptr %0, ptr %2, align 8, !tbaa !42
  call void @llvm.lifetime.start.p0(i64 8, ptr %3) #7
  %4 = load ptr, ptr %2, align 8, !tbaa !42
  store ptr %4, ptr %3, align 8, !tbaa !44
  %5 = load ptr, ptr %3, align 8, !tbaa !44
  %6 = getelementptr inbounds nuw %struct.PyDictObject, ptr %5, i32 0, i32 1
  %7 = load i64, ptr %6, align 8, !tbaa !75
  call void @llvm.lifetime.end.p0(i64 8, ptr %3) #7
  ret i64 %7
}

; Function Attrs: nounwind uwtable
define internal ptr @odict_repr(ptr noundef %0) #0 {
  %2 = alloca ptr, align 8
  %3 = alloca ptr, align 8
  %4 = alloca i32, align 4
  %5 = alloca ptr, align 8
  %6 = alloca ptr, align 8
  %7 = alloca i32, align 4
  store ptr %0, ptr %3, align 8, !tbaa !4
  call void @llvm.lifetime.start.p0(i64 4, ptr %4) #7
  call void @llvm.lifetime.start.p0(i64 8, ptr %5) #7
  store ptr null, ptr %5, align 8, !tbaa !42
  call void @llvm.lifetime.start.p0(i64 8, ptr %6) #7
  store ptr null, ptr %6, align 8, !tbaa !42
  %8 = load ptr, ptr %3, align 8, !tbaa !4
  %9 = call i64 @PyDict_GET_SIZE(ptr noundef %8)
  %10 = icmp eq i64 %9, 0
  br i1 %10, label %11, label %16

11:                                               ; preds = %1
  %12 = load ptr, ptr %3, align 8, !tbaa !4
  %13 = call ptr @_Py_TYPE(ptr noundef %12)
  %14 = call ptr @_PyType_Name(ptr noundef %13)
  %15 = call ptr (ptr, ...) @PyUnicode_FromFormat(ptr noundef @.str.5, ptr noundef %14)
  store ptr %15, ptr %2, align 8
  store i32 1, ptr %7, align 4
  br label %45

16:                                               ; preds = %1
  %17 = load ptr, ptr %3, align 8, !tbaa !4
  %18 = call i32 @Py_ReprEnter(ptr noundef %17)
  store i32 %18, ptr %4, align 4, !tbaa !43
  %19 = load i32, ptr %4, align 4, !tbaa !43
  %20 = icmp ne i32 %19, 0
  br i1 %20, label %21, label %29

21:                                               ; preds = %16
  %22 = load i32, ptr %4, align 4, !tbaa !43
  %23 = icmp sgt i32 %22, 0
  br i1 %23, label %24, label %26

24:                                               ; preds = %21
  %25 = call ptr @PyUnicode_FromString(ptr noundef @.str.6)
  br label %27

26:                                               ; preds = %21
  br label %27

27:                                               ; preds = %26, %24
  %28 = phi ptr [ %25, %24 ], [ null, %26 ]
  store ptr %28, ptr %2, align 8
  store i32 1, ptr %7, align 4
  br label %45

29:                                               ; preds = %16
  %30 = load ptr, ptr %3, align 8, !tbaa !4
  %31 = call ptr @PyDict_Copy(ptr noundef %30)
  store ptr %31, ptr %6, align 8, !tbaa !42
  %32 = load ptr, ptr %6, align 8, !tbaa !42
  %33 = icmp eq ptr %32, null
  br i1 %33, label %34, label %35

34:                                               ; preds = %29
  br label %42

35:                                               ; preds = %29
  %36 = load ptr, ptr %3, align 8, !tbaa !4
  %37 = call ptr @_Py_TYPE(ptr noundef %36)
  %38 = call ptr @_PyType_Name(ptr noundef %37)
  %39 = load ptr, ptr %6, align 8, !tbaa !42
  %40 = call ptr (ptr, ...) @PyUnicode_FromFormat(ptr noundef @.str.7, ptr noundef %38, ptr noundef %39)
  store ptr %40, ptr %5, align 8, !tbaa !42
  %41 = load ptr, ptr %6, align 8, !tbaa !42
  call void @Py_DECREF(ptr noundef %41)
  br label %42

42:                                               ; preds = %35, %34
  %43 = load ptr, ptr %3, align 8, !tbaa !4
  call void @Py_ReprLeave(ptr noundef %43)
  %44 = load ptr, ptr %5, align 8, !tbaa !42
  store ptr %44, ptr %2, align 8
  store i32 1, ptr %7, align 4
  br label %45

45:                                               ; preds = %42, %27, %11
  call void @llvm.lifetime.end.p0(i64 8, ptr %6) #7
  call void @llvm.lifetime.end.p0(i64 8, ptr %5) #7
  call void @llvm.lifetime.end.p0(i64 4, ptr %4) #7
  %46 = load ptr, ptr %2, align 8
  ret ptr %46
}