; Function Attrs: nounwind uwtable
define internal ptr @odict_repr(ptr noundef %0) #0 {
  %2 = getelementptr i8, ptr %0, i64 16
  %.val16 = load i64, ptr %2, align 8, !tbaa !49
  %3 = icmp eq i64 %.val16, 0
  br i1 %3, label %4, label %8

4:                                                ; preds = %1
  %5 = getelementptr i8, ptr %0, i64 8
  %.val = load ptr, ptr %5, align 8, !tbaa !20
  %6 = tail call ptr @_PyType_Name(ptr noundef %.val) #8
  %7 = tail call ptr (ptr, ...) @PyUnicode_FromFormat(ptr noundef nonnull @.str.5, ptr noundef %6) #8
  br label %26

8:                                                ; preds = %1
  %9 = tail call i32 @Py_ReprEnter(ptr noundef nonnull %0) #8
  %.not = icmp eq i32 %9, 0
  br i1 %.not, label %14, label %10

10:                                               ; preds = %8
  %11 = icmp sgt i32 %9, 0
  br i1 %11, label %12, label %26

12:                                               ; preds = %10
  %13 = tail call ptr @PyUnicode_FromString(ptr noundef nonnull @.str.6) #8
  br label %26

14:                                               ; preds = %8
  %15 = tail call ptr @PyDict_Copy(ptr noundef nonnull %0) #8
  %16 = icmp eq ptr %15, null
  br i1 %16, label %Py_DECREF.exit, label %17

17:                                               ; preds = %14
  %18 = getelementptr i8, ptr %0, i64 8
  %.val15 = load ptr, ptr %18, align 8, !tbaa !20
  %19 = tail call ptr @_PyType_Name(ptr noundef %.val15) #8
  %20 = tail call ptr (ptr, ...) @PyUnicode_FromFormat(ptr noundef nonnull @.str.7, ptr noundef %19, ptr noundef nonnull %15) #8
  %21 = load i32, ptr %15, align 8, !tbaa !38
  %.not.i = icmp sgt i32 %21, -1
  br i1 %.not.i, label %22, label %Py_DECREF.exit

22:                                               ; preds = %17
  %23 = add nsw i32 %21, -1
  store i32 %23, ptr %15, align 8, !tbaa !38
  %24 = icmp eq i32 %23, 0
  br i1 %24, label %25, label %Py_DECREF.exit

25:                                               ; preds = %22
  tail call void @_Py_Dealloc(ptr noundef nonnull %15) #8
  br label %Py_DECREF.exit

Py_DECREF.exit:                                   ; preds = %25, %22, %17, %14
  %.0 = phi ptr [ null, %14 ], [ %20, %17 ], [ %20, %22 ], [ %20, %25 ]
  tail call void @Py_ReprLeave(ptr noundef nonnull %0) #8
  br label %26

26:                                               ; preds = %12, %10, %Py_DECREF.exit, %4
  %.012 = phi ptr [ %7, %4 ], [ %.0, %Py_DECREF.exit ], [ %13, %12 ], [ null, %10 ]
  ret ptr %.012
}